target datalayout = "e-m:e-p270:32:32-p271:32:32-p272:64:64-i64:64-i128:128-f80:128-n8:16:32:64-S128"
target triple = "x86_64-pc-linux-gnu"

%struct.formnode = type { i16, i16, i16, i32, i32, i32, i32, i16, i16, i16, i32, ptr, ptr, ptr, ptr, ptr, ptr, ptr, ptr, ptr, ptr, ptr }
%struct.fieldnode = type { i16, i16, i16, i16, i16, i32, i32, i32, i32, i16, i16, i16, i16, i32, i32, i32, i32, ptr, ptr, ptr, ptr, ptr, ptr, ptr, ptr }

; Function Attrs: nounwind uwtable
define internal ptr @After_End_Of_Data(ptr noundef %0, i32 noundef %1) #0 {
  %3 = alloca ptr, align 8
  %4 = alloca i32, align 4
  %5 = alloca ptr, align 8
  store ptr %0, ptr %3, align 8, !tbaa !55
  store i32 %1, ptr %4, align 4, !tbaa !35
  call void @llvm.lifetime.start.p0(i64 8, ptr %5) #9
  %6 = load ptr, ptr %3, align 8, !tbaa !55
  %7 = load i32, ptr %4, align 4, !tbaa !35
  %8 = sext i32 %7 to i64
  %9 = getelementptr inbounds i8, ptr %6, i64 %8
  store ptr %9, ptr %5, align 8, !tbaa !55
  br label %10

10:                                               ; preds = %22, %2
  %11 = load ptr, ptr %5, align 8, !tbaa !55
  %12 = load ptr, ptr %3, align 8, !tbaa !55
  %13 = icmp ugt ptr %11, %12
  br i1 %13, label %14, label %20

14:                                               ; preds = %10
  %15 = load ptr, ptr %5, align 8, !tbaa !55
  %16 = getelementptr inbounds i8, ptr %15, i64 -1
  %17 = load i8, ptr %16, align 1, !tbaa !65
  %18 = sext i8 %17 to i32
  %19 = icmp eq i32 %18, 32
  br label %20

20:                                               ; preds = %14, %10
  %21 = phi i1 [ false, %10 ], [ %19, %14 ]
  br i1 %21, label %22, label %25

22:                                               ; preds = %20
  %23 = load ptr, ptr %5, align 8, !tbaa !55
  %24 = getelementptr inbounds i8, ptr %23, i32 -1
  store ptr %24, ptr %5, align 8, !tbaa !55
  br label %10, !llvm.loop !116

25:                                               ; preds = %20
  %26 = load ptr, ptr %5, align 8, !tbaa !55
  call void @llvm.lifetime.end.p0(i64 8, ptr %5) #9
  ret ptr %26
}

; Function Attrs: nounwind uwtable
define internal zeroext i1 @Is_There_Room_For_A_Line(ptr noundef %0) #0 {
  %2 = alloca ptr, align 8
  %3 = alloca ptr, align 8
  %4 = alloca ptr, align 8
  %5 = alloca ptr, align 8
  store ptr %0, ptr %2, align 8, !tbaa !4
  call void @llvm.lifetime.start.p0(i64 8, ptr %3) #9
  %6 = load ptr, ptr %2, align 8, !tbaa !4
  %7 = getelementptr inbounds nuw %struct.formnode, ptr %6, i32 0, i32 15
  %8 = load ptr, ptr %7, align 8, !tbaa !16
  store ptr %8, ptr %3, align 8, !tbaa !17
  call void @llvm.lifetime.start.p0(i64 8, ptr %4) #9
  call void @llvm.lifetime.start.p0(i64 8, ptr %5) #9
  %9 = load ptr, ptr %2, align 8, !tbaa !4
  call void @Synchronize_Buffer(ptr noundef %9)
  %10 = load ptr, ptr %3, align 8, !tbaa !17
  %11 = getelementptr inbounds nuw %struct.fieldnode, ptr %10, i32 0, i32 23
  %12 = load ptr, ptr %11, align 8, !tbaa !54
  %13 = load ptr, ptr %3, align 8, !tbaa !17
  %14 = getelementptr inbounds nuw %struct.fieldnode, ptr %13, i32 0, i32 5
  %15 = load i32, ptr %14, align 4, !tbaa !27
  %16 = load ptr, ptr %3, align 8, !tbaa !17
  %17 = getelementptr inbounds nuw %struct.fieldnode, ptr %16, i32 0, i32 6
  %18 = load i32, ptr %17, align 8, !tbaa !29
  %19 = mul nsw i32 %15, %18
  %20 = add nsw i32 1, %19
  %21 = mul nsw i32 0, %20
  %22 = sext i32 %21 to i64
  %23 = getelementptr inbounds i8, ptr %12, i64 %22
  %24 = load ptr, ptr %3, align 8, !tbaa !17
  %25 = getelementptr inbounds nuw %struct.fieldnode, ptr %24, i32 0, i32 5
  %26 = load i32, ptr %25, align 4, !tbaa !27
  %27 = sub nsw i32 %26, 1
  %28 = load ptr, ptr %3, align 8, !tbaa !17
  %29 = getelementptr inbounds nuw %struct.fieldnode, ptr %28, i32 0, i32 6
  %30 = load i32, ptr %29, align 8, !tbaa !29
  %31 = mul nsw i32 %27, %30
  %32 = sext i32 %31 to i64
  %33 = getelementptr inbounds i8, ptr %23, i64 %32
  store ptr %33, ptr %4, align 8, !tbaa !55
  %34 = load ptr, ptr %4, align 8, !tbaa !55
  %35 = load ptr, ptr %3, align 8, !tbaa !17
  %36 = getelementptr inbounds nuw %struct.fieldnode, ptr %35, i32 0, i32 6
  %37 = load i32, ptr %36, align 8, !tbaa !29
  %38 = call ptr @After_End_Of_Data(ptr noundef %34, i32 noundef %37)
  store ptr %38, ptr %5, align 8, !tbaa !55
  %39 = load ptr, ptr %5, align 8, !tbaa !55
  %40 = load ptr, ptr %4, align 8, !tbaa !55
  %41 = icmp eq ptr %39, %40
  %42 = select i1 %41, i32 1, i32 0
  %43 = icmp ne i32 %42, 0
  call void @llvm.lifetime.end.p0(i64 8, ptr %5) #9
  call void @llvm.lifetime.end.p0(i64 8, ptr %4) #9
  call void @llvm.lifetime.end.p0(i64 8, ptr %3) #9
  ret i1 %43
}

; Function Attrs: nounwind uwtable
define internal i32 @FE_Insert_Line(ptr noundef %0) #0 {
  %2 = alloca ptr, align 8
  %3 = alloca ptr, align 8
  %4 = alloca i32, align 4
  %5 = alloca i8, align 1
  store ptr %0, ptr %2, align 8, !tbaa !4
  call void @llvm.lifetime.start.p0(i64 8, ptr %3) #9
  %6 = load ptr, ptr %2, align 8, !tbaa !4
  %7 = getelementptr inbounds nuw %struct.formnode, ptr %6, i32 0, i32 15
  %8 = load ptr, ptr %7, align 8, !tbaa !16
  store ptr %8, ptr %3, align 8, !tbaa !17
  call void @llvm.lifetime.start.p0(i64 4, ptr %4) #9
  store i32 -12, ptr %4, align 4, !tbaa !35
  %9 = load ptr, ptr %3, align 8, !tbaa !17
  %10 = getelementptr inbounds nuw %struct.fieldnode, ptr %9, i32 0, i32 21
  %11 = load ptr, ptr %10, align 8, !tbaa !67
  %12 = load ptr, ptr %3, align 8, !tbaa !17
  %13 = getelementptr inbounds nuw %struct.fieldnode, ptr %12, i32 0, i32 22
  %14 = load ptr, ptr %13, align 8, !tbaa !68
  %15 = call zeroext i1 @Check_Char(ptr noundef %11, i32 noundef 32, ptr noundef %14)
  br i1 %15, label %16, label %66

16:                                               ; preds = %1
  call void @llvm.lifetime.start.p0(i64 1, ptr %5) #9
  %17 = load ptr, ptr %2, align 8, !tbaa !4
  %18 = getelementptr inbounds nuw %struct.formnode, ptr %17, i32 0, i32 3
  %19 = load i32, ptr %18, align 8, !tbaa !21
  %20 = load ptr, ptr %3, align 8, !tbaa !17
  %21 = getelementptr inbounds nuw %struct.fieldnode, ptr %20, i32 0, i32 5
  %22 = load i32, ptr %21, align 4, !tbaa !27
  %23 = sub nsw i32 %22, 1
  %24 = icmp ne i32 %19, %23
  br i1 %24, label %25, label %28

25:                                               ; preds = %16
  %26 = load ptr, ptr %2, align 8, !tbaa !4
  %27 = call zeroext i1 @Is_There_Room_For_A_Line(ptr noundef %26)
  br label %28

28:                                               ; preds = %25, %16
  %29 = phi i1 [ false, %16 ], [ %27, %25 ]
  %30 = zext i1 %29 to i8
  store i8 %30, ptr %5, align 1, !tbaa !58
  %31 = load ptr, ptr %3, align 8, !tbaa !17
  %32 = getelementptr inbounds nuw %struct.fieldnode, ptr %31, i32 0, i32 1
  %33 = load i16, ptr %32, align 2, !tbaa !28
  %34 = sext i16 %33 to i32
  %35 = load ptr, ptr %3, align 8, !tbaa !17
  %36 = getelementptr inbounds nuw %struct.fieldnode, ptr %35, i32 0, i32 8
  %37 = load i32, ptr %36, align 8, !tbaa !36
  %38 = add nsw i32 %34, %37
  %39 = icmp eq i32 %38, 1
  br i1 %39, label %65, label %40

40:                                               ; preds = %28
  %41 = load i8, ptr %5, align 1, !tbaa !58, !range !60, !noundef !61
  %42 = trunc i8 %41 to i1
  br i1 %42, label %50, label %43

43:                                               ; preds = %40
  %44 = load ptr, ptr %3, align 8, !tbaa !17
  %45 = getelementptr inbounds nuw %struct.fieldnode, ptr %44, i32 0, i32 0
  %46 = load i16, ptr %45, align 8, !tbaa !37
  %47 = zext i16 %46 to i32
  %48 = and i32 %47, 8
  %49 = icmp ne i32 %48, 0
  br i1 %49, label %50, label %65

50:                                               ; preds = %43, %40
  %51 = load i8, ptr %5, align 1, !tbaa !58, !range !60, !noundef !61
  %52 = trunc i8 %51 to i1
  br i1 %52, label %57, label %53

53:                                               ; preds = %50
  %54 = load ptr, ptr %3, align 8, !tbaa !17
  %55 = call zeroext i1 @Field_Grown(ptr noundef %54, i32 noundef 1)
  br i1 %55, label %57, label %56

56:                                               ; preds = %53
  store i32 -1, ptr %4, align 4, !tbaa !35
  br label %64

57:                                               ; preds = %53, %50
  %58 = load ptr, ptr %2, align 8, !tbaa !4
  %59 = getelementptr inbounds nuw %struct.formnode, ptr %58, i32 0, i32 4
  store i32 0, ptr %59, align 4, !tbaa !22
  %60 = load ptr, ptr %2, align 8, !tbaa !4
  %61 = getelementptr inbounds nuw %struct.formnode, ptr %60, i32 0, i32 13
  %62 = load ptr, ptr %61, align 8, !tbaa !9
  %63 = call i32 @winsdelln(ptr noundef %62, i32 noundef 1)
  store i32 0, ptr %4, align 4, !tbaa !35
  br label %64

64:                                               ; preds = %57, %56
  br label %65

65:                                               ; preds = %64, %43, %28
  call void @llvm.lifetime.end.p0(i64 1, ptr %5) #9
  br label %66

66:                                               ; preds = %65, %1
  %67 = load i32, ptr %4, align 4, !tbaa !35
  call void @llvm.lifetime.end.p0(i64 4, ptr %4) #9
  call void @llvm.lifetime.end.p0(i64 8, ptr %3) #9
  ret i32 %67
}