; Function Attrs: nounwind uwtable
define internal range(i32 -12, 1) i32 @FE_Insert_Line(ptr noundef captures(none) %0) #0 {
  %2 = getelementptr inbounds nuw i8, ptr %0, i64 72
  %3 = load ptr, ptr %2, align 8, !tbaa !14
  %4 = getelementptr inbounds nuw i8, ptr %3, i64 88
  %5 = load ptr, ptr %4, align 8, !tbaa !63
  %6 = getelementptr inbounds nuw i8, ptr %3, i64 96
  %7 = load ptr, ptr %6, align 8, !tbaa !64
  %8 = tail call fastcc zeroext i1 @Check_Char(ptr noundef %5, i32 noundef 32, ptr noundef %7)
  br i1 %8, label %9, label %60

9:                                                ; preds = %1
  %10 = getelementptr inbounds nuw i8, ptr %0, i64 8
  %11 = load i32, ptr %10, align 8, !tbaa !17
  %12 = getelementptr inbounds nuw i8, ptr %3, i64 12
  %13 = load i32, ptr %12, align 4, !tbaa !24
  %14 = add nsw i32 %13, -1
  %.not = icmp eq i32 %11, %14
  br i1 %.not, label %.thread, label %15

15:                                               ; preds = %9
  %16 = load ptr, ptr %2, align 8, !tbaa !14
  tail call fastcc void @Synchronize_Buffer(ptr noundef nonnull %0)
  %17 = getelementptr inbounds nuw i8, ptr %16, i64 104
  %18 = load ptr, ptr %17, align 8, !tbaa !52
  %19 = getelementptr inbounds nuw i8, ptr %16, i64 12
  %20 = load i32, ptr %19, align 4, !tbaa !24
  %21 = getelementptr inbounds nuw i8, ptr %16, i64 16
  %22 = load i32, ptr %21, align 8, !tbaa !26
  %23 = add nsw i32 %20, -1
  %24 = mul nsw i32 %23, %22
  %25 = sext i32 %24 to i64
  %26 = getelementptr inbounds i8, ptr %18, i64 %25
  %27 = sext i32 %22 to i64
  %28 = getelementptr inbounds i8, ptr %26, i64 %27
  br label %29

29:                                               ; preds = %31, %15
  %.0.i.i = phi ptr [ %28, %15 ], [ %32, %31 ]
  %30 = icmp ugt ptr %.0.i.i, %26
  br i1 %30, label %31, label %35

31:                                               ; preds = %29
  %32 = getelementptr inbounds i8, ptr %.0.i.i, i64 -1
  %33 = load i8, ptr %32, align 1, !tbaa !54
  %34 = icmp eq i8 %33, 32
  br i1 %34, label %29, label %35, !llvm.loop !57

35:                                               ; preds = %31, %29
  %36 = getelementptr inbounds nuw i8, ptr %3, i64 2
  %37 = load i16, ptr %36, align 2, !tbaa !25
  %38 = sext i16 %37 to i32
  %39 = getelementptr inbounds nuw i8, ptr %3, i64 24
  %40 = load i32, ptr %39, align 8, !tbaa !33
  %41 = add nsw i32 %40, %38
  %42 = icmp eq i32 %41, 1
  br i1 %42, label %60, label %50

.thread:                                          ; preds = %9
  %43 = getelementptr inbounds nuw i8, ptr %3, i64 2
  %44 = load i16, ptr %43, align 2, !tbaa !25
  %45 = sext i16 %44 to i32
  %46 = getelementptr inbounds nuw i8, ptr %3, i64 24
  %47 = load i32, ptr %46, align 8, !tbaa !33
  %48 = add nsw i32 %47, %45
  %49 = icmp eq i32 %48, 1
  br i1 %49, label %60, label %.thread15

50:                                               ; preds = %35
  %51 = icmp eq ptr %.0.i.i, %26
  br i1 %51, label %.critedge, label %.thread15

.thread15:                                        ; preds = %.thread, %50
  %52 = load i16, ptr %3, align 8, !tbaa !34
  %53 = and i16 %52, 8
  %.not14 = icmp eq i16 %53, 0
  br i1 %.not14, label %60, label %54

54:                                               ; preds = %.thread15
  %55 = tail call fastcc zeroext i1 @Field_Grown(ptr noundef nonnull %3, i32 noundef 1)
  br i1 %55, label %.critedge, label %60

.critedge:                                        ; preds = %50, %54
  %56 = getelementptr inbounds nuw i8, ptr %0, i64 12
  store i32 0, ptr %56, align 4, !tbaa !18
  %57 = getelementptr inbounds nuw i8, ptr %0, i64 56
  %58 = load ptr, ptr %57, align 8, !tbaa !4
  %59 = tail call i32 @winsdelln(ptr noundef %58, i32 noundef 1) #13
  br label %60

60:                                               ; preds = %.thread, %35, %.thread15, %.critedge, %54, %1
  %.0 = phi i32 [ -12, %1 ], [ -12, %35 ], [ 0, %.critedge ], [ -12, %.thread15 ], [ -1, %54 ], [ -12, %.thread ]
  ret i32 %.0
}